#include <math.h>
#include <stdio.h>
#include <stdlib.h>
#include <string.h>

int main(){
int n,i,k;
scanf("%d\n",&n);
char sz[n][300],zfc[n][300];

for(k=0;k<n;k++){
scanf("%s\n",sz[k]);
for(i=0;sz[k][i]!='\0';i++){
if(sz[k][i]=='A'){zfc[k][i]='T';}
else if(sz[k][i]=='T'){zfc[k][i]='A';}
else if(sz[k][i]=='G'){zfc[k][i]='C';}
else {zfc[k][i]='G';}
}
printf("%s\n",zfc[k]);
}
return 0;
}

